target datalayout = "e-m:e-p270:32:32-p271:32:32-p272:64:64-i64:64-i128:128-f80:128-n8:16:32:64-S128"
target triple = "x86_64-pc-linux-gnu"

; Function Attrs: nounwind uwtable
define hidden i64 @_mi_strlen(ptr noundef %0) #0 {
  %2 = alloca i64, align 8
  %3 = alloca ptr, align 8
  %4 = alloca i64, align 8
  store ptr %0, ptr %3, align 8, !tbaa !6
  %5 = load ptr, ptr %3, align 8, !tbaa !6
  %6 = icmp eq ptr %5, null
  br i1 %6, label %7, label %8

7:                                                ; preds = %1
  store i64 0, ptr %2, align 8
  br label %21

8:                                                ; preds = %1
  call void @llvm.lifetime.start.p0(i64 8, ptr %4) #5
  store i64 0, ptr %4, align 8, !tbaa !9
  br label %9

9:                                                ; preds = %16, %8
  %10 = load ptr, ptr %3, align 8, !tbaa !6
  %11 = load i64, ptr %4, align 8, !tbaa !9
  %12 = getelementptr inbounds nuw i8, ptr %10, i64 %11
  %13 = load i8, ptr %12, align 1, !tbaa !3
  %14 = sext i8 %13 to i32
  %15 = icmp ne i32 %14, 0
  br i1 %15, label %16, label %19

16:                                               ; preds = %9
  %17 = load i64, ptr %4, align 8, !tbaa !9
  %18 = add i64 %17, 1
  store i64 %18, ptr %4, align 8, !tbaa !9
  br label %9, !llvm.loop !15

19:                                               ; preds = %9
  %20 = load i64, ptr %4, align 8, !tbaa !9
  store i64 %20, ptr %2, align 8
  call void @llvm.lifetime.end.p0(i64 8, ptr %4) #5
  br label %21

21:                                               ; preds = %19, %7
  %22 = load i64, ptr %2, align 8
  ret i64 %22
}