; Function Attrs: nofree norecurse nosync nounwind memory(argmem: read) uwtable
define hidden i64 @_mi_strlen(ptr noundef readonly %0) local_unnamed_addr #1 {
  %2 = icmp eq ptr %0, null
  br i1 %2, label %.loopexit, label %.preheader

.preheader:                                       ; preds = %1, %.preheader
  %.0 = phi i64 [ %5, %.preheader ], [ 0, %1 ]
  %3 = getelementptr inbounds nuw i8, ptr %0, i64 %.0
  %4 = load i8, ptr %3, align 1, !tbaa !3
  %.not = icmp eq i8 %4, 0
  %5 = add i64 %.0, 1
  br i1 %.not, label %.loopexit, label %.preheader, !llvm.loop !10

.loopexit:                                        ; preds = %.preheader, %1
  %.05 = phi i64 [ 0, %1 ], [ %.0, %.preheader ]
  ret i64 %.05
}